target datalayout = "e-m:e-p270:32:32-p271:32:32-p272:64:64-i64:64-i128:128-f80:128-n8:16:32:64-S128"
target triple = "x86_64-unknown-linux-gnu"

%"class.icu_75::DecimalFormatSymbols" = type <{ %"class.icu_75::UObject", [29 x %"class.icu_75::UnicodeString"], %"class.icu_75::UnicodeString", i32, [4 x i8], %"class.icu_75::Locale", [157 x i8], [157 x i8], [6 x i8], ptr, [3 x %"class.icu_75::UnicodeString"], [3 x %"class.icu_75::UnicodeString"], i8, i8, [9 x i8], [5 x i8] }>
%"class.icu_75::UObject" = type { ptr }
%"class.icu_75::UnicodeString" = type { %"class.icu_75::Replaceable", %"union.icu_75::UnicodeString::StackBufferOrFields" }
%"class.icu_75::Replaceable" = type { %"class.icu_75::UObject" }
%"union.icu_75::UnicodeString::StackBufferOrFields" = type { %struct.anon.0, [32 x i8] }
%struct.anon.0 = type { i16, i32, i32, ptr }
%"class.icu_75::Locale" = type <{ %"class.icu_75::UObject", [12 x i8], [6 x i8], [4 x i8], [2 x i8], i32, [4 x i8], ptr, [157 x i8], [3 x i8], ptr, i8, [7 x i8] }>

@_ZTVN6icu_7520DecimalFormatSymbolsE = unnamed_addr constant { [5 x ptr] } { [5 x ptr] [ptr null, ptr @_ZTIN6icu_7520DecimalFormatSymbolsE, ptr @_ZN6icu_7520DecimalFormatSymbolsD1Ev, ptr @_ZN6icu_7520DecimalFormatSymbolsD0Ev, ptr @_ZNK6icu_7520DecimalFormatSymbols17getDynamicClassIDEv] }, align 8

; Function Attrs: mustprogress nounwind uwtable
define void @_ZN6icu_7520DecimalFormatSymbolsD2Ev(ptr noundef nonnull align 8 dereferenceable(2883) %this) unnamed_addr #0 align 2 {
entry:
  %this.addr = alloca ptr, align 8
  store ptr %this, ptr %this.addr, align 8
  %this1 = load ptr, ptr %this.addr, align 8
  store ptr getelementptr inbounds ({ [5 x ptr] }, ptr @_ZTVN6icu_7520DecimalFormatSymbolsE, i32 0, i32 0, i32 2), ptr %this1, align 8
  %currencySpcAfterSym = getelementptr inbounds %"class.icu_75::DecimalFormatSymbols", ptr %this1, i32 0, i32 11
  %array.begin = getelementptr inbounds [3 x %"class.icu_75::UnicodeString"], ptr %currencySpcAfterSym, i32 0, i32 0
  %0 = getelementptr inbounds %"class.icu_75::UnicodeString", ptr %array.begin, i64 3
  br label %arraydestroy.body

arraydestroy.body:                                ; preds = %arraydestroy.body, %entry
  %arraydestroy.elementPast = phi ptr [ %0, %entry ], [ %arraydestroy.element, %arraydestroy.body ]
  %arraydestroy.element = getelementptr inbounds %"class.icu_75::UnicodeString", ptr %arraydestroy.elementPast, i64 -1
  call void @_ZN6icu_7513UnicodeStringD1Ev(ptr noundef nonnull align 8 dereferenceable(64) %arraydestroy.element) #9
  %arraydestroy.done = icmp eq ptr %arraydestroy.element, %array.begin
  br i1 %arraydestroy.done, label %arraydestroy.done2, label %arraydestroy.body

arraydestroy.done2:                               ; preds = %arraydestroy.body
  %currencySpcBeforeSym = getelementptr inbounds %"class.icu_75::DecimalFormatSymbols", ptr %this1, i32 0, i32 10
  %array.begin3 = getelementptr inbounds [3 x %"class.icu_75::UnicodeString"], ptr %currencySpcBeforeSym, i32 0, i32 0
  %1 = getelementptr inbounds %"class.icu_75::UnicodeString", ptr %array.begin3, i64 3
  br label %arraydestroy.body4

arraydestroy.body4:                               ; preds = %arraydestroy.body4, %arraydestroy.done2
  %arraydestroy.elementPast5 = phi ptr [ %1, %arraydestroy.done2 ], [ %arraydestroy.element6, %arraydestroy.body4 ]
  %arraydestroy.element6 = getelementptr inbounds %"class.icu_75::UnicodeString", ptr %arraydestroy.elementPast5, i64 -1
  call void @_ZN6icu_7513UnicodeStringD1Ev(ptr noundef nonnull align 8 dereferenceable(64) %arraydestroy.element6) #9
  %arraydestroy.done7 = icmp eq ptr %arraydestroy.element6, %array.begin3
  br i1 %arraydestroy.done7, label %arraydestroy.done8, label %arraydestroy.body4

arraydestroy.done8:                               ; preds = %arraydestroy.body4
  %locale = getelementptr inbounds %"class.icu_75::DecimalFormatSymbols", ptr %this1, i32 0, i32 5
  call void @_ZN6icu_756LocaleD1Ev(ptr noundef nonnull align 8 dereferenceable(217) %locale) #9
  %fNoSymbol = getelementptr inbounds %"class.icu_75::DecimalFormatSymbols", ptr %this1, i32 0, i32 2
  call void @_ZN6icu_7513UnicodeStringD1Ev(ptr noundef nonnull align 8 dereferenceable(64) %fNoSymbol) #9
  %fSymbols = getelementptr inbounds %"class.icu_75::DecimalFormatSymbols", ptr %this1, i32 0, i32 1
  %array.begin9 = getelementptr inbounds [29 x %"class.icu_75::UnicodeString"], ptr %fSymbols, i32 0, i32 0
  %2 = getelementptr inbounds %"class.icu_75::UnicodeString", ptr %array.begin9, i64 29
  br label %arraydestroy.body10

arraydestroy.body10:                              ; preds = %arraydestroy.body10, %arraydestroy.done8
  %arraydestroy.elementPast11 = phi ptr [ %2, %arraydestroy.done8 ], [ %arraydestroy.element12, %arraydestroy.body10 ]
  %arraydestroy.element12 = getelementptr inbounds %"class.icu_75::UnicodeString", ptr %arraydestroy.elementPast11, i64 -1
  call void @_ZN6icu_7513UnicodeStringD1Ev(ptr noundef nonnull align 8 dereferenceable(64) %arraydestroy.element12) #9
  %arraydestroy.done13 = icmp eq ptr %arraydestroy.element12, %array.begin9
  br i1 %arraydestroy.done13, label %arraydestroy.done14, label %arraydestroy.body10

arraydestroy.done14:                              ; preds = %arraydestroy.body10
  call void @_ZN6icu_757UObjectD2Ev(ptr noundef nonnull align 8 dereferenceable(8) %this1) #9
  ret void
}