; Function Attrs: mustprogress nounwind uwtable
define void @_ZN6icu_7520DecimalFormatSymbolsD2Ev(ptr noundef nonnull align 8 dereferenceable(2883) %this) unnamed_addr #0 align 2 {
entry:
  store ptr getelementptr inbounds ({ [5 x ptr] }, ptr @_ZTVN6icu_7520DecimalFormatSymbolsE, i64 0, i32 0, i64 2), ptr %this, align 8
  br label %arraydestroy.body

arraydestroy.body:                                ; preds = %arraydestroy.body, %entry
  %arraydestroy.elementPast.idx = phi i64 [ 2872, %entry ], [ %arraydestroy.elementPast.add, %arraydestroy.body ]
  %arraydestroy.elementPast.add = add nsw i64 %arraydestroy.elementPast.idx, -64
  %arraydestroy.element.ptr = getelementptr inbounds i8, ptr %this, i64 %arraydestroy.elementPast.add
  tail call void @_ZN6icu_7513UnicodeStringD1Ev(ptr noundef nonnull align 8 dereferenceable(64) %arraydestroy.element.ptr) #15
  %arraydestroy.done = icmp eq i64 %arraydestroy.elementPast.add, 2680
  br i1 %arraydestroy.done, label %arraydestroy.body4, label %arraydestroy.body

arraydestroy.body4:                               ; preds = %arraydestroy.body, %arraydestroy.body4
  %arraydestroy.elementPast5.idx = phi i64 [ %arraydestroy.elementPast5.add, %arraydestroy.body4 ], [ 2680, %arraydestroy.body ]
  %arraydestroy.elementPast5.add = add nsw i64 %arraydestroy.elementPast5.idx, -64
  %arraydestroy.element6.ptr = getelementptr inbounds i8, ptr %this, i64 %arraydestroy.elementPast5.add
  tail call void @_ZN6icu_7513UnicodeStringD1Ev(ptr noundef nonnull align 8 dereferenceable(64) %arraydestroy.element6.ptr) #15
  %arraydestroy.done7 = icmp eq i64 %arraydestroy.elementPast5.add, 2488
  br i1 %arraydestroy.done7, label %arraydestroy.done8, label %arraydestroy.body4

arraydestroy.done8:                               ; preds = %arraydestroy.body4
  %locale = getelementptr inbounds i8, ptr %this, i64 1936
  tail call void @_ZN6icu_756LocaleD1Ev(ptr noundef nonnull align 8 dereferenceable(217) %locale) #15
  %fNoSymbol = getelementptr inbounds i8, ptr %this, i64 1864
  tail call void @_ZN6icu_7513UnicodeStringD1Ev(ptr noundef nonnull align 8 dereferenceable(64) %fNoSymbol) #15
  br label %arraydestroy.body10

arraydestroy.body10:                              ; preds = %arraydestroy.body10, %arraydestroy.done8
  %arraydestroy.elementPast11.idx = phi i64 [ 1864, %arraydestroy.done8 ], [ %arraydestroy.elementPast11.add, %arraydestroy.body10 ]
  %arraydestroy.elementPast11.add = add nsw i64 %arraydestroy.elementPast11.idx, -64
  %arraydestroy.element12.ptr = getelementptr inbounds i8, ptr %this, i64 %arraydestroy.elementPast11.add
  tail call void @_ZN6icu_7513UnicodeStringD1Ev(ptr noundef nonnull align 8 dereferenceable(64) %arraydestroy.element12.ptr) #15
  %arraydestroy.done13 = icmp eq i64 %arraydestroy.elementPast11.add, 8
  br i1 %arraydestroy.done13, label %arraydestroy.done14, label %arraydestroy.body10

arraydestroy.done14:                              ; preds = %arraydestroy.body10
  tail call void @_ZN6icu_757UObjectD2Ev(ptr noundef nonnull align 8 dereferenceable(8) %this) #15
  ret void
}